target datalayout = "e-m:e-p270:32:32-p271:32:32-p272:64:64-i64:64-i128:128-f80:128-n8:16:32:64-S128"
target triple = "x86_64-pc-linux-gnu"

%"struct.gmx::nonbonded_verlet_t" = type { %"class.std::unique_ptr", %"class.std::unique_ptr.2", %"class.std::unique_ptr.10", %"struct.gmx::NbnxmKernelSetup", %"class.std::unique_ptr.18", %"class.std::unique_ptr.26", ptr, ptr }
%"class.std::unique_ptr" = type { %"struct.std::__uniq_ptr_data" }
%"struct.std::__uniq_ptr_data" = type { %"class.std::__uniq_ptr_impl" }
%"class.std::__uniq_ptr_impl" = type { %"class.std::tuple" }
%"class.std::tuple" = type { %"struct.std::_Tuple_impl" }
%"struct.std::_Tuple_impl" = type { %"struct.std::_Head_base.1" }
%"struct.std::_Head_base.1" = type { ptr }
%"class.std::unique_ptr.2" = type { %"struct.std::__uniq_ptr_data.3" }
%"struct.std::__uniq_ptr_data.3" = type { %"class.std::__uniq_ptr_impl.4" }
%"class.std::__uniq_ptr_impl.4" = type { %"class.std::tuple.5" }
%"class.std::tuple.5" = type { %"struct.std::_Tuple_impl.6" }
%"struct.std::_Tuple_impl.6" = type { %"struct.std::_Head_base.9" }
%"struct.std::_Head_base.9" = type { ptr }
%"class.std::unique_ptr.10" = type { %"struct.std::__uniq_ptr_data.11" }
%"struct.std::__uniq_ptr_data.11" = type { %"class.std::__uniq_ptr_impl.12" }
%"class.std::__uniq_ptr_impl.12" = type { %"class.std::tuple.13" }
%"class.std::tuple.13" = type { %"struct.std::_Tuple_impl.14" }
%"struct.std::_Tuple_impl.14" = type { %"struct.std::_Head_base.17" }
%"struct.std::_Head_base.17" = type { ptr }
%"struct.gmx::NbnxmKernelSetup" = type { i32, i32 }
%"class.std::unique_ptr.18" = type { %"struct.std::__uniq_ptr_data.19" }
%"struct.std::__uniq_ptr_data.19" = type { %"class.std::__uniq_ptr_impl.20" }
%"class.std::__uniq_ptr_impl.20" = type { %"class.std::tuple.21" }
%"class.std::tuple.21" = type { %"struct.std::_Tuple_impl.22" }
%"struct.std::_Tuple_impl.22" = type { %"struct.std::_Head_base.25" }
%"struct.std::_Head_base.25" = type { ptr }
%"class.std::unique_ptr.26" = type { %"struct.std::__uniq_ptr_data.27" }
%"struct.std::__uniq_ptr_data.27" = type { %"class.std::__uniq_ptr_impl.28" }
%"class.std::__uniq_ptr_impl.28" = type { %"class.std::tuple.29" }
%"class.std::tuple.29" = type { %"struct.std::_Tuple_impl.30" }
%"struct.std::_Tuple_impl.30" = type { %"struct.std::_Head_base.33" }
%"struct.std::_Head_base.33" = type { ptr }
%"class.gmx::PairSearch" = type { %"class.gmx::GridSet", %"class.std::vector.46", %"struct.gmx::SearchCycleCounting" }
%"class.gmx::GridSet" = type { %"struct.gmx::GridSet::DomainSetup", %"class.std::vector", i32, %"struct.gmx::GridSetData", i32, i8, i8, i32, [3 x [3 x float]], i32, i32, %"class.std::vector.36", i32, %"class.std::vector.41" }
%"struct.gmx::GridSet::DomainSetup" = type { i32, i8, i8, %"struct.std::array", ptr }
%"struct.std::array" = type { [3 x i8] }
%"class.std::vector" = type { %"struct.std::_Vector_base" }
%"struct.std::_Vector_base" = type { %"struct.std::_Vector_base<gmx::Grid, std::allocator<gmx::Grid>>::_Vector_impl" }
%"struct.std::_Vector_base<gmx::Grid, std::allocator<gmx::Grid>>::_Vector_impl" = type { %"struct.std::_Vector_base<gmx::Grid, std::allocator<gmx::Grid>>::_Vector_impl_data" }
%"struct.std::_Vector_base<gmx::Grid, std::allocator<gmx::Grid>>::_Vector_impl_data" = type { ptr, ptr, ptr }
%"struct.gmx::GridSetData" = type { %"class.std::vector.34", %"class.std::vector.34" }
%"class.std::vector.34" = type { %"struct.std::_Vector_base.35" }
%"struct.std::_Vector_base.35" = type { %"struct.std::_Vector_base<int, gmx::Allocator<int, gmx::HostAllocationPolicy>>::_Vector_impl" }
%"struct.std::_Vector_base<int, gmx::Allocator<int, gmx::HostAllocationPolicy>>::_Vector_impl" = type { %"class.gmx::Allocator.base", %"struct.std::_Vector_base<int, gmx::Allocator<int, gmx::HostAllocationPolicy>>::_Vector_impl_data" }
%"class.gmx::Allocator.base" = type { %"class.gmx::HostAllocationPolicy.base" }
%"class.gmx::HostAllocationPolicy.base" = type <{ i32, i8 }>
%"struct.std::_Vector_base<int, gmx::Allocator<int, gmx::HostAllocationPolicy>>::_Vector_impl_data" = type { ptr, ptr, ptr }
%"class.std::vector.36" = type { %"struct.std::_Vector_base.37" }
%"struct.std::_Vector_base.37" = type { %"struct.std::_Vector_base<gmx::GridWork, std::allocator<gmx::GridWork>>::_Vector_impl" }
%"struct.std::_Vector_base<gmx::GridWork, std::allocator<gmx::GridWork>>::_Vector_impl" = type { %"struct.std::_Vector_base<gmx::GridWork, std::allocator<gmx::GridWork>>::_Vector_impl_data" }
%"struct.std::_Vector_base<gmx::GridWork, std::allocator<gmx::GridWork>>::_Vector_impl_data" = type { ptr, ptr, ptr }
%"class.std::vector.41" = type { %"struct.std::_Vector_base.42" }
%"struct.std::_Vector_base.42" = type { %"struct.std::_Vector_base<int, std::allocator<int>>::_Vector_impl" }
%"struct.std::_Vector_base<int, std::allocator<int>>::_Vector_impl" = type { %"struct.std::_Vector_base<int, std::allocator<int>>::_Vector_impl_data" }
%"struct.std::_Vector_base<int, std::allocator<int>>::_Vector_impl_data" = type { ptr, ptr, ptr }
%"class.std::vector.46" = type { %"struct.std::_Vector_base.47" }
%"struct.std::_Vector_base.47" = type { %"struct.std::_Vector_base<gmx::PairsearchWork, std::allocator<gmx::PairsearchWork>>::_Vector_impl" }
%"struct.std::_Vector_base<gmx::PairsearchWork, std::allocator<gmx::PairsearchWork>>::_Vector_impl" = type { %"struct.std::_Vector_base<gmx::PairsearchWork, std::allocator<gmx::PairsearchWork>>::_Vector_impl_data" }
%"struct.std::_Vector_base<gmx::PairsearchWork, std::allocator<gmx::PairsearchWork>>::_Vector_impl_data" = type { ptr, ptr, ptr }
%"struct.gmx::SearchCycleCounting" = type { i8, i32, [3 x %"class.gmx::nbnxn_cycle_t"] }
%"class.gmx::nbnxn_cycle_t" = type { i32, i64, i64 }
%"class.gmx::ArrayRef" = type { %"struct.gmx::ArrayRefIter", %"struct.gmx::ArrayRefIter" }
%"struct.gmx::ArrayRefIter" = type { ptr }
%"class.gmx::ArrayRef.87" = type { %"struct.gmx::ArrayRefIter.88", %"struct.gmx::ArrayRefIter.88" }
%"struct.gmx::ArrayRefIter.88" = type { ptr }

; Function Attrs: mustprogress nounwind uwtable
define linkonce_odr noundef nonnull align 8 dereferenceable(8) ptr @_ZNSt10_Head_baseILm0EPN3gmx10PairSearchELb0EE7_M_headERKS3_(ptr noundef nonnull align 8 dereferenceable(8) %0) #1 comdat align 2 {
  %2 = alloca ptr, align 8
  store ptr %0, ptr %2, align 8, !tbaa !55
  %3 = load ptr, ptr %2, align 8, !tbaa !55
  %4 = getelementptr inbounds nuw %"struct.std::_Head_base.9", ptr %3, i32 0, i32 0
  ret ptr %4
}

; Function Attrs: mustprogress nounwind uwtable
define linkonce_odr noundef nonnull align 8 dereferenceable(8) ptr @_ZNSt11_Tuple_implILm0EJPN3gmx10PairSearchESt14default_deleteIS1_EEE7_M_headERKS5_(ptr noundef nonnull align 8 dereferenceable(8) %0) #1 comdat align 2 {
  %2 = alloca ptr, align 8
  store ptr %0, ptr %2, align 8, !tbaa !53
  %3 = load ptr, ptr %2, align 8, !tbaa !53
  %4 = call noundef nonnull align 8 dereferenceable(8) ptr @_ZNSt10_Head_baseILm0EPN3gmx10PairSearchELb0EE7_M_headERKS3_(ptr noundef nonnull align 8 dereferenceable(8) %3) #17
  ret ptr %4
}

; Function Attrs: mustprogress nounwind uwtable
define linkonce_odr noundef nonnull align 8 dereferenceable(8) ptr @_ZNSt10_Head_baseILm0EPN3gmx16nbnxn_atomdata_tELb0EE7_M_headERKS3_(ptr noundef nonnull align 8 dereferenceable(8) %0) #1 comdat align 2 {
  %2 = alloca ptr, align 8
  store ptr %0, ptr %2, align 8, !tbaa !101
  %3 = load ptr, ptr %2, align 8, !tbaa !101
  %4 = getelementptr inbounds nuw %"struct.std::_Head_base.17", ptr %3, i32 0, i32 0
  ret ptr %4
}

; Function Attrs: mustprogress nounwind uwtable
define linkonce_odr noundef nonnull align 8 dereferenceable(8) ptr @_ZSt12__get_helperILm0EPN3gmx10PairSearchEJSt14default_deleteIS1_EEERKT0_RKSt11_Tuple_implIXT_EJS5_DpT1_EE(ptr noundef nonnull align 8 dereferenceable(8) %0) #1 comdat {
  %2 = alloca ptr, align 8
  store ptr %0, ptr %2, align 8, !tbaa !53
  %3 = load ptr, ptr %2, align 8, !tbaa !53
  %4 = call noundef nonnull align 8 dereferenceable(8) ptr @_ZNSt11_Tuple_implILm0EJPN3gmx10PairSearchESt14default_deleteIS1_EEE7_M_headERKS5_(ptr noundef nonnull align 8 dereferenceable(8) %3) #17
  ret ptr %4
}

; Function Attrs: mustprogress nounwind uwtable
define linkonce_odr noundef nonnull align 8 dereferenceable(8) ptr @_ZNSt11_Tuple_implILm0EJPN3gmx16nbnxn_atomdata_tESt14default_deleteIS1_EEE7_M_headERKS5_(ptr noundef nonnull align 8 dereferenceable(8) %0) #1 comdat align 2 {
  %2 = alloca ptr, align 8
  store ptr %0, ptr %2, align 8, !tbaa !99
  %3 = load ptr, ptr %2, align 8, !tbaa !99
  %4 = call noundef nonnull align 8 dereferenceable(8) ptr @_ZNSt10_Head_baseILm0EPN3gmx16nbnxn_atomdata_tELb0EE7_M_headERKS3_(ptr noundef nonnull align 8 dereferenceable(8) %3) #17
  ret ptr %4
}

; Function Attrs: mustprogress nounwind uwtable
define linkonce_odr noundef nonnull align 8 dereferenceable(8) ptr @_ZSt3getILm0EJPN3gmx10PairSearchESt14default_deleteIS1_EEERKNSt13tuple_elementIXT_ESt5tupleIJDpT0_EEE4typeERKS9_(ptr noundef nonnull align 8 dereferenceable(8) %0) #1 comdat {
  %2 = alloca ptr, align 8
  store ptr %0, ptr %2, align 8, !tbaa !51
  %3 = load ptr, ptr %2, align 8, !tbaa !51
  %4 = call noundef nonnull align 8 dereferenceable(8) ptr @_ZSt12__get_helperILm0EPN3gmx10PairSearchEJSt14default_deleteIS1_EEERKT0_RKSt11_Tuple_implIXT_EJS5_DpT1_EE(ptr noundef nonnull align 8 dereferenceable(8) %3) #17
  ret ptr %4
}

; Function Attrs: mustprogress nounwind uwtable
define linkonce_odr noundef nonnull align 8 dereferenceable(8) ptr @_ZSt12__get_helperILm0EPN3gmx16nbnxn_atomdata_tEJSt14default_deleteIS1_EEERKT0_RKSt11_Tuple_implIXT_EJS5_DpT1_EE(ptr noundef nonnull align 8 dereferenceable(8) %0) #1 comdat {
  %2 = alloca ptr, align 8
  store ptr %0, ptr %2, align 8, !tbaa !99
  %3 = load ptr, ptr %2, align 8, !tbaa !99
  %4 = call noundef nonnull align 8 dereferenceable(8) ptr @_ZNSt11_Tuple_implILm0EJPN3gmx16nbnxn_atomdata_tESt14default_deleteIS1_EEE7_M_headERKS5_(ptr noundef nonnull align 8 dereferenceable(8) %3) #17
  ret ptr %4
}

; Function Attrs: mustprogress nounwind uwtable
define linkonce_odr noundef i64 @_ZNK3gmx12ArrayRefIterIKfEmiES2_(ptr noundef nonnull align 8 dereferenceable(8) %0, ptr %1) #1 comdat align 2 {
  %3 = alloca %"struct.gmx::ArrayRefIter.88", align 8
  %4 = alloca ptr, align 8
  %5 = getelementptr inbounds nuw %"struct.gmx::ArrayRefIter.88", ptr %3, i32 0, i32 0
  store ptr %1, ptr %5, align 8
  store ptr %0, ptr %4, align 8, !tbaa !196
  %6 = load ptr, ptr %4, align 8
  %7 = getelementptr inbounds nuw %"struct.gmx::ArrayRefIter.88", ptr %6, i32 0, i32 0
  %8 = load ptr, ptr %7, align 8, !tbaa !198
  %9 = getelementptr inbounds nuw %"struct.gmx::ArrayRefIter.88", ptr %3, i32 0, i32 0
  %10 = load ptr, ptr %9, align 8, !tbaa !198
  %11 = ptrtoint ptr %8 to i64
  %12 = ptrtoint ptr %10 to i64
  %13 = sub i64 %11, %12
  %14 = sdiv exact i64 %13, 4
  ret i64 %14
}

; Function Attrs: mustprogress nounwind uwtable
define linkonce_odr noundef ptr @_ZNK3gmx12ArrayRefIterIKfE4dataEv(ptr noundef nonnull align 8 dereferenceable(8) %0) #1 comdat align 2 {
  %2 = alloca ptr, align 8
  store ptr %0, ptr %2, align 8, !tbaa !196
  %3 = load ptr, ptr %2, align 8
  %4 = getelementptr inbounds nuw %"struct.gmx::ArrayRefIter.88", ptr %3, i32 0, i32 0
  %5 = load ptr, ptr %4, align 8, !tbaa !198
  ret ptr %5
}

; Function Attrs: mustprogress nounwind uwtable
define linkonce_odr noundef i64 @_ZNK3gmx12ArrayRefIterIKiEmiES2_(ptr noundef nonnull align 8 dereferenceable(8) %0, ptr %1) #1 comdat align 2 {
  %3 = alloca %"struct.gmx::ArrayRefIter", align 8
  %4 = alloca ptr, align 8
  %5 = getelementptr inbounds nuw %"struct.gmx::ArrayRefIter", ptr %3, i32 0, i32 0
  store ptr %1, ptr %5, align 8
  store ptr %0, ptr %4, align 8, !tbaa !87
  %6 = load ptr, ptr %4, align 8
  %7 = getelementptr inbounds nuw %"struct.gmx::ArrayRefIter", ptr %6, i32 0, i32 0
  %8 = load ptr, ptr %7, align 8, !tbaa !89
  %9 = getelementptr inbounds nuw %"struct.gmx::ArrayRefIter", ptr %3, i32 0, i32 0
  %10 = load ptr, ptr %9, align 8, !tbaa !89
  %11 = ptrtoint ptr %8 to i64
  %12 = ptrtoint ptr %10 to i64
  %13 = sub i64 %11, %12
  %14 = sdiv exact i64 %13, 4
  ret i64 %14
}

; Function Attrs: mustprogress nounwind uwtable
define linkonce_odr noundef ptr @_ZNK3gmx12ArrayRefIterIKiE4dataEv(ptr noundef nonnull align 8 dereferenceable(8) %0) #1 comdat align 2 {
  %2 = alloca ptr, align 8
  store ptr %0, ptr %2, align 8, !tbaa !87
  %3 = load ptr, ptr %2, align 8
  %4 = getelementptr inbounds nuw %"struct.gmx::ArrayRefIter", ptr %3, i32 0, i32 0
  %5 = load ptr, ptr %4, align 8, !tbaa !89
  ret ptr %5
}

; Function Attrs: mustprogress nounwind uwtable
define linkonce_odr noundef ptr @_ZNKSt15__uniq_ptr_implIN3gmx10PairSearchESt14default_deleteIS1_EE6_M_ptrEv(ptr noundef nonnull align 8 dereferenceable(8) %0) #1 comdat align 2 {
  %2 = alloca ptr, align 8
  store ptr %0, ptr %2, align 8, !tbaa !49
  %3 = load ptr, ptr %2, align 8
  %4 = getelementptr inbounds nuw %"class.std::__uniq_ptr_impl.4", ptr %3, i32 0, i32 0
  %5 = call noundef nonnull align 8 dereferenceable(8) ptr @_ZSt3getILm0EJPN3gmx10PairSearchESt14default_deleteIS1_EEERKNSt13tuple_elementIXT_ESt5tupleIJDpT0_EEE4typeERKS9_(ptr noundef nonnull align 8 dereferenceable(8) %4) #17
  %6 = load ptr, ptr %5, align 8, !tbaa !11
  ret ptr %6
}

; Function Attrs: mustprogress nounwind uwtable
define linkonce_odr noundef nonnull align 8 dereferenceable(8) ptr @_ZSt3getILm0EJPN3gmx16nbnxn_atomdata_tESt14default_deleteIS1_EEERKNSt13tuple_elementIXT_ESt5tupleIJDpT0_EEE4typeERKS9_(ptr noundef nonnull align 8 dereferenceable(8) %0) #1 comdat {
  %2 = alloca ptr, align 8
  store ptr %0, ptr %2, align 8, !tbaa !97
  %3 = load ptr, ptr %2, align 8, !tbaa !97
  %4 = call noundef nonnull align 8 dereferenceable(8) ptr @_ZSt12__get_helperILm0EPN3gmx16nbnxn_atomdata_tEJSt14default_deleteIS1_EEERKT0_RKSt11_Tuple_implIXT_EJS5_DpT1_EE(ptr noundef nonnull align 8 dereferenceable(8) %3) #17
  ret ptr %4
}

; Function Attrs: mustprogress nounwind uwtable
define linkonce_odr noundef i64 @_ZNK3gmx8ArrayRefIKfE4sizeEv(ptr noundef nonnull align 8 dereferenceable(16) %0) #1 comdat align 2 {
  %2 = alloca ptr, align 8
  %3 = alloca %"struct.gmx::ArrayRefIter.88", align 8
  store ptr %0, ptr %2, align 8, !tbaa !194
  %4 = load ptr, ptr %2, align 8
  %5 = getelementptr inbounds nuw %"class.gmx::ArrayRef.87", ptr %4, i32 0, i32 1
  %6 = getelementptr inbounds nuw %"class.gmx::ArrayRef.87", ptr %4, i32 0, i32 0
  call void @llvm.memcpy.p0.p0.i64(ptr align 8 %3, ptr align 8 %6, i64 8, i1 false)
  %7 = getelementptr inbounds nuw %"struct.gmx::ArrayRefIter.88", ptr %3, i32 0, i32 0
  %8 = load ptr, ptr %7, align 8
  %9 = call noundef i64 @_ZNK3gmx12ArrayRefIterIKfEmiES2_(ptr noundef nonnull align 8 dereferenceable(8) %5, ptr %8) #17
  ret i64 %9
}

; Function Attrs: mustprogress nounwind uwtable
define linkonce_odr void @_ZN3gmx12ArrayRefIterIKfEC2EPS1_(ptr noundef nonnull align 8 dereferenceable(8) %0, ptr noundef %1) unnamed_addr #1 comdat align 2 {
  %3 = alloca ptr, align 8
  %4 = alloca ptr, align 8
  store ptr %0, ptr %3, align 8, !tbaa !196
  store ptr %1, ptr %4, align 8, !tbaa !57
  %5 = load ptr, ptr %3, align 8
  %6 = getelementptr inbounds nuw %"struct.gmx::ArrayRefIter.88", ptr %5, i32 0, i32 0
  %7 = load ptr, ptr %4, align 8, !tbaa !57
  store ptr %7, ptr %6, align 8, !tbaa !198
  ret void
}

; Function Attrs: mustprogress nounwind uwtable
define linkonce_odr noundef ptr @_ZNK3gmx8ArrayRefIKfE4dataEv(ptr noundef nonnull align 8 dereferenceable(16) %0) #1 comdat align 2 {
  %2 = alloca ptr, align 8
  store ptr %0, ptr %2, align 8, !tbaa !194
  %3 = load ptr, ptr %2, align 8
  %4 = getelementptr inbounds nuw %"class.gmx::ArrayRef.87", ptr %3, i32 0, i32 0
  %5 = call noundef ptr @_ZNK3gmx12ArrayRefIterIKfE4dataEv(ptr noundef nonnull align 8 dereferenceable(8) %4) #17
  ret ptr %5
}

; Function Attrs: mustprogress nounwind uwtable
define linkonce_odr noundef i64 @_ZNK3gmx8ArrayRefIKiE4sizeEv(ptr noundef nonnull align 8 dereferenceable(16) %0) #1 comdat align 2 {
  %2 = alloca ptr, align 8
  %3 = alloca %"struct.gmx::ArrayRefIter", align 8
  store ptr %0, ptr %2, align 8, !tbaa !70
  %4 = load ptr, ptr %2, align 8
  %5 = getelementptr inbounds nuw %"class.gmx::ArrayRef", ptr %4, i32 0, i32 1
  %6 = getelementptr inbounds nuw %"class.gmx::ArrayRef", ptr %4, i32 0, i32 0
  call void @llvm.memcpy.p0.p0.i64(ptr align 8 %3, ptr align 8 %6, i64 8, i1 false)
  %7 = getelementptr inbounds nuw %"struct.gmx::ArrayRefIter", ptr %3, i32 0, i32 0
  %8 = load ptr, ptr %7, align 8
  %9 = call noundef i64 @_ZNK3gmx12ArrayRefIterIKiEmiES2_(ptr noundef nonnull align 8 dereferenceable(8) %5, ptr %8) #17
  ret i64 %9
}

; Function Attrs: mustprogress nounwind uwtable
define linkonce_odr void @_ZN3gmx12ArrayRefIterIKiEC2EPS1_(ptr noundef nonnull align 8 dereferenceable(8) %0, ptr noundef %1) unnamed_addr #1 comdat align 2 {
  %3 = alloca ptr, align 8
  %4 = alloca ptr, align 8
  store ptr %0, ptr %3, align 8, !tbaa !87
  store ptr %1, ptr %4, align 8, !tbaa !66
  %5 = load ptr, ptr %3, align 8
  %6 = getelementptr inbounds nuw %"struct.gmx::ArrayRefIter", ptr %5, i32 0, i32 0
  %7 = load ptr, ptr %4, align 8, !tbaa !66
  store ptr %7, ptr %6, align 8, !tbaa !89
  ret void
}

; Function Attrs: mustprogress nounwind uwtable
define linkonce_odr noundef ptr @_ZNK3gmx8ArrayRefIKiE4dataEv(ptr noundef nonnull align 8 dereferenceable(16) %0) #1 comdat align 2 {
  %2 = alloca ptr, align 8
  store ptr %0, ptr %2, align 8, !tbaa !70
  %3 = load ptr, ptr %2, align 8
  %4 = getelementptr inbounds nuw %"class.gmx::ArrayRef", ptr %3, i32 0, i32 0
  %5 = call noundef ptr @_ZNK3gmx12ArrayRefIterIKiE4dataEv(ptr noundef nonnull align 8 dereferenceable(8) %4) #17
  ret ptr %5
}

; Function Attrs: mustprogress nounwind uwtable
define linkonce_odr noundef ptr @_ZNKSt10unique_ptrIN3gmx10PairSearchESt14default_deleteIS1_EE3getEv(ptr noundef nonnull align 8 dereferenceable(8) %0) #1 comdat align 2 {
  %2 = alloca ptr, align 8
  store ptr %0, ptr %2, align 8, !tbaa !9
  %3 = load ptr, ptr %2, align 8
  %4 = getelementptr inbounds nuw %"class.std::unique_ptr.2", ptr %3, i32 0, i32 0
  %5 = call noundef ptr @_ZNKSt15__uniq_ptr_implIN3gmx10PairSearchESt14default_deleteIS1_EE6_M_ptrEv(ptr noundef nonnull align 8 dereferenceable(8) %4) #17
  ret ptr %5
}

; Function Attrs: mustprogress nounwind uwtable
define linkonce_odr noundef ptr @_ZNKSt15__uniq_ptr_implIN3gmx16nbnxn_atomdata_tESt14default_deleteIS1_EE6_M_ptrEv(ptr noundef nonnull align 8 dereferenceable(8) %0) #1 comdat align 2 {
  %2 = alloca ptr, align 8
  store ptr %0, ptr %2, align 8, !tbaa !95
  %3 = load ptr, ptr %2, align 8
  %4 = getelementptr inbounds nuw %"class.std::__uniq_ptr_impl.12", ptr %3, i32 0, i32 0
  %5 = call noundef nonnull align 8 dereferenceable(8) ptr @_ZSt3getILm0EJPN3gmx16nbnxn_atomdata_tESt14default_deleteIS1_EEERKNSt13tuple_elementIXT_ESt5tupleIJDpT0_EEE4typeERKS9_(ptr noundef nonnull align 8 dereferenceable(8) %4) #17
  %6 = load ptr, ptr %5, align 8, !tbaa !68
  ret ptr %6
}

; Function Attrs: mustprogress uwtable
define linkonce_odr void @_ZN3gmx8ArrayRefIKfEC2IRS2_vEEOT_(ptr noundef nonnull align 8 dereferenceable(16) %0, ptr noundef nonnull align 8 dereferenceable(16) %1) unnamed_addr #0 comdat align 2 {
  %3 = alloca ptr, align 8
  %4 = alloca ptr, align 8
  store ptr %0, ptr %3, align 8, !tbaa !194
  store ptr %1, ptr %4, align 8, !tbaa !194
  %5 = load ptr, ptr %3, align 8
  %6 = getelementptr inbounds nuw %"class.gmx::ArrayRef.87", ptr %5, i32 0, i32 0
  %7 = load ptr, ptr %4, align 8, !tbaa !194
  %8 = call noundef ptr @_ZNK3gmx8ArrayRefIKfE4dataEv(ptr noundef nonnull align 8 dereferenceable(16) %7)
  call void @_ZN3gmx12ArrayRefIterIKfEC2EPS1_(ptr noundef nonnull align 8 dereferenceable(8) %6, ptr noundef %8) #17
  %9 = getelementptr inbounds nuw %"class.gmx::ArrayRef.87", ptr %5, i32 0, i32 1
  %10 = load ptr, ptr %4, align 8, !tbaa !194
  %11 = call noundef ptr @_ZNK3gmx8ArrayRefIKfE4dataEv(ptr noundef nonnull align 8 dereferenceable(16) %10)
  %12 = load ptr, ptr %4, align 8, !tbaa !194
  %13 = call noundef i64 @_ZNK3gmx8ArrayRefIKfE4sizeEv(ptr noundef nonnull align 8 dereferenceable(16) %12)
  %14 = getelementptr inbounds nuw float, ptr %11, i64 %13
  call void @_ZN3gmx12ArrayRefIterIKfEC2EPS1_(ptr noundef nonnull align 8 dereferenceable(8) %9, ptr noundef %14) #17
  ret void
}

; Function Attrs: mustprogress uwtable
define linkonce_odr void @_ZN3gmx8ArrayRefIKiEC2IRS2_vEEOT_(ptr noundef nonnull align 8 dereferenceable(16) %0, ptr noundef nonnull align 8 dereferenceable(16) %1) unnamed_addr #0 comdat align 2 {
  %3 = alloca ptr, align 8
  %4 = alloca ptr, align 8
  store ptr %0, ptr %3, align 8, !tbaa !70
  store ptr %1, ptr %4, align 8, !tbaa !70
  %5 = load ptr, ptr %3, align 8
  %6 = getelementptr inbounds nuw %"class.gmx::ArrayRef", ptr %5, i32 0, i32 0
  %7 = load ptr, ptr %4, align 8, !tbaa !70
  %8 = call noundef ptr @_ZNK3gmx8ArrayRefIKiE4dataEv(ptr noundef nonnull align 8 dereferenceable(16) %7)
  call void @_ZN3gmx12ArrayRefIterIKiEC2EPS1_(ptr noundef nonnull align 8 dereferenceable(8) %6, ptr noundef %8) #17
  %9 = getelementptr inbounds nuw %"class.gmx::ArrayRef", ptr %5, i32 0, i32 1
  %10 = load ptr, ptr %4, align 8, !tbaa !70
  %11 = call noundef ptr @_ZNK3gmx8ArrayRefIKiE4dataEv(ptr noundef nonnull align 8 dereferenceable(16) %10)
  %12 = load ptr, ptr %4, align 8, !tbaa !70
  %13 = call noundef i64 @_ZNK3gmx8ArrayRefIKiE4sizeEv(ptr noundef nonnull align 8 dereferenceable(16) %12)
  %14 = getelementptr inbounds nuw i32, ptr %11, i64 %13
  call void @_ZN3gmx12ArrayRefIterIKiEC2EPS1_(ptr noundef nonnull align 8 dereferenceable(8) %9, ptr noundef %14) #17
  ret void
}

; Function Attrs: mustprogress nounwind uwtable
define linkonce_odr noundef nonnull align 8 dereferenceable(232) ptr @_ZNK3gmx10PairSearch7gridSetEv(ptr noundef nonnull align 8 dereferenceable(336) %0) #1 comdat align 2 {
  %2 = alloca ptr, align 8
  store ptr %0, ptr %2, align 8, !tbaa !11
  %3 = load ptr, ptr %2, align 8
  %4 = getelementptr inbounds nuw %"class.gmx::PairSearch", ptr %3, i32 0, i32 0
  ret ptr %4
}

; Function Attrs: mustprogress nounwind uwtable
define linkonce_odr noundef ptr @_ZNKSt10unique_ptrIN3gmx10PairSearchESt14default_deleteIS1_EEptEv(ptr noundef nonnull align 8 dereferenceable(8) %0) #1 comdat align 2 {
  %2 = alloca ptr, align 8
  store ptr %0, ptr %2, align 8, !tbaa !9
  %3 = load ptr, ptr %2, align 8
  %4 = call noundef ptr @_ZNKSt10unique_ptrIN3gmx10PairSearchESt14default_deleteIS1_EE3getEv(ptr noundef nonnull align 8 dereferenceable(8) %3) #17
  ret ptr %4
}

; Function Attrs: mustprogress nounwind uwtable
define linkonce_odr noundef ptr @_ZNKSt10unique_ptrIN3gmx16nbnxn_atomdata_tESt14default_deleteIS1_EE3getEv(ptr noundef nonnull align 8 dereferenceable(8) %0) #1 comdat align 2 {
  %2 = alloca ptr, align 8
  store ptr %0, ptr %2, align 8, !tbaa !74
  %3 = load ptr, ptr %2, align 8
  %4 = getelementptr inbounds nuw %"class.std::unique_ptr.10", ptr %3, i32 0, i32 0
  %5 = call noundef ptr @_ZNKSt15__uniq_ptr_implIN3gmx16nbnxn_atomdata_tESt14default_deleteIS1_EE6_M_ptrEv(ptr noundef nonnull align 8 dereferenceable(8) %4) #17
  ret ptr %5
}

; Function Attrs: mustprogress uwtable
define void @_ZNK3gmx18nonbonded_verlet_t17setAtomPropertiesENS_8ArrayRefIKiEENS1_IKfEES3_(ptr noundef nonnull align 8 dereferenceable(64) %0, ptr %1, ptr %2, ptr %3, ptr %4, ptr noundef byval(%"class.gmx::ArrayRef") align 8 %5) #0 align 2 {
  %7 = alloca %"class.gmx::ArrayRef", align 8
  %8 = alloca %"class.gmx::ArrayRef.87", align 8
  %9 = alloca ptr, align 8
  %10 = alloca %"class.gmx::ArrayRef", align 8
  %11 = alloca %"class.gmx::ArrayRef.87", align 8
  %12 = alloca %"class.gmx::ArrayRef", align 8
  %13 = getelementptr inbounds nuw { ptr, ptr }, ptr %7, i32 0, i32 0
  store ptr %1, ptr %13, align 8
  %14 = getelementptr inbounds nuw { ptr, ptr }, ptr %7, i32 0, i32 1
  store ptr %2, ptr %14, align 8
  %15 = getelementptr inbounds nuw { ptr, ptr }, ptr %8, i32 0, i32 0
  store ptr %3, ptr %15, align 8
  %16 = getelementptr inbounds nuw { ptr, ptr }, ptr %8, i32 0, i32 1
  store ptr %4, ptr %16, align 8
  store ptr %0, ptr %9, align 8, !tbaa !4
  %17 = load ptr, ptr %9, align 8
  %18 = getelementptr inbounds nuw %"struct.gmx::nonbonded_verlet_t", ptr %17, i32 0, i32 2
  %19 = call noundef ptr @_ZNKSt10unique_ptrIN3gmx16nbnxn_atomdata_tESt14default_deleteIS1_EE3getEv(ptr noundef nonnull align 8 dereferenceable(8) %18) #17
  %20 = getelementptr inbounds nuw %"struct.gmx::nonbonded_verlet_t", ptr %17, i32 0, i32 1
  %21 = call noundef ptr @_ZNKSt10unique_ptrIN3gmx10PairSearchESt14default_deleteIS1_EEptEv(ptr noundef nonnull align 8 dereferenceable(8) %20) #17
  %22 = call noundef nonnull align 8 dereferenceable(232) ptr @_ZNK3gmx10PairSearch7gridSetEv(ptr noundef nonnull align 8 dereferenceable(336) %21)
  call void @_ZN3gmx8ArrayRefIKiEC2IRS2_vEEOT_(ptr noundef nonnull align 8 dereferenceable(16) %10, ptr noundef nonnull align 8 dereferenceable(16) %7)
  call void @_ZN3gmx8ArrayRefIKfEC2IRS2_vEEOT_(ptr noundef nonnull align 8 dereferenceable(16) %11, ptr noundef nonnull align 8 dereferenceable(16) %8)
  call void @_ZN3gmx8ArrayRefIKiEC2IRS2_vEEOT_(ptr noundef nonnull align 8 dereferenceable(16) %12, ptr noundef nonnull align 8 dereferenceable(16) %5)
  %23 = getelementptr inbounds nuw { ptr, ptr }, ptr %10, i32 0, i32 0
  %24 = load ptr, ptr %23, align 8
  %25 = getelementptr inbounds nuw { ptr, ptr }, ptr %10, i32 0, i32 1
  %26 = load ptr, ptr %25, align 8
  %27 = getelementptr inbounds nuw { ptr, ptr }, ptr %11, i32 0, i32 0
  %28 = load ptr, ptr %27, align 8
  %29 = getelementptr inbounds nuw { ptr, ptr }, ptr %11, i32 0, i32 1
  %30 = load ptr, ptr %29, align 8
  call void @_ZN3gmx18nbnxn_atomdata_setEPNS_16nbnxn_atomdata_tERKNS_7GridSetENS_8ArrayRefIKiEENS5_IKfEES7_(ptr noundef %19, ptr noundef nonnull align 8 dereferenceable(232) %22, ptr %24, ptr %26, ptr %28, ptr %30, ptr noundef byval(%"class.gmx::ArrayRef") align 8 %12)
  ret void
}