; Function Attrs: mustprogress uwtable
define void @_ZNK3gmx18nonbonded_verlet_t17setAtomPropertiesENS_8ArrayRefIKiEENS1_IKfEES3_(ptr noundef nonnull readonly align 8 captures(none) dereferenceable(64) %0, ptr %1, ptr %2, ptr %3, ptr %4, ptr noundef readonly byval(%"class.gmx::ArrayRef") align 8 captures(none) %5) local_unnamed_addr #1 align 2 {
  %7 = alloca %"class.gmx::ArrayRef", align 8
  %8 = getelementptr inbounds nuw i8, ptr %0, i64 16
  %9 = load ptr, ptr %8, align 8, !tbaa !48
  %10 = getelementptr inbounds nuw i8, ptr %0, i64 8
  %11 = load ptr, ptr %10, align 8, !tbaa !4
  %12 = ptrtoint ptr %2 to i64
  %13 = ptrtoint ptr %1 to i64
  %14 = sub i64 %12, %13
  %15 = getelementptr inbounds nuw i8, ptr %1, i64 %14
  %16 = ptrtoint ptr %4 to i64
  %17 = ptrtoint ptr %3 to i64
  %18 = sub i64 %16, %17
  %19 = getelementptr inbounds nuw i8, ptr %3, i64 %18
  %20 = load ptr, ptr %5, align 8, !tbaa !43
  store ptr %20, ptr %7, align 8, !tbaa !43
  %21 = getelementptr inbounds nuw i8, ptr %7, i64 8
  %22 = getelementptr inbounds nuw i8, ptr %5, i64 8
  %23 = load ptr, ptr %22, align 8, !tbaa !43
  %24 = ptrtoint ptr %23 to i64
  %25 = ptrtoint ptr %20 to i64
  %26 = sub i64 %24, %25
  %27 = getelementptr inbounds nuw i8, ptr %20, i64 %26
  store ptr %27, ptr %21, align 8, !tbaa !43
  tail call void @_ZN3gmx18nbnxn_atomdata_setEPNS_16nbnxn_atomdata_tERKNS_7GridSetENS_8ArrayRefIKiEENS5_IKfEES7_(ptr noundef %9, ptr noundef nonnull align 8 dereferenceable(232) %11, ptr %1, ptr %15, ptr %3, ptr %19, ptr noundef nonnull byval(%"class.gmx::ArrayRef") align 8 %7)
  ret void
}